; Function Attrs: mustprogress nofree nounwind willreturn uwtable
define dso_local noundef zeroext i1 @safe_strtoul(ptr noundef %0, ptr noundef writeonly captures(none) initializes((0, 4)) %1) local_unnamed_addr #6 {
  %3 = alloca ptr, align 8
  call void @llvm.lifetime.start.p0(i64 8, ptr nonnull %3) #15
  store ptr null, ptr %3, align 8, !tbaa !11
  store i32 0, ptr %1, align 4, !tbaa !17
  %4 = tail call ptr @__errno_location() #14
  store i32 0, ptr %4, align 4, !tbaa !17
  %5 = call i64 @strtoul(ptr noundef %0, ptr noundef nonnull %3, i32 noundef 10) #15
  %6 = load i32, ptr %4, align 4, !tbaa !17
  %7 = icmp eq i32 %6, 34
  br i1 %7, label %29, label %8

8:                                                ; preds = %2
  %9 = load ptr, ptr %3, align 8, !tbaa !11
  %10 = icmp eq ptr %0, %9
  br i1 %10, label %29, label %11

11:                                               ; preds = %8
  %12 = tail call ptr @__ctype_b_loc() #14
  %13 = load ptr, ptr %12, align 8, !tbaa !4
  %14 = load i8, ptr %9, align 1, !tbaa !15
  %15 = zext i8 %14 to i64
  %16 = getelementptr inbounds nuw i16, ptr %13, i64 %15
  %17 = load i16, ptr %16, align 2, !tbaa !9
  %18 = and i16 %17, 8192
  %.not = icmp ne i16 %18, 0
  %19 = icmp eq i8 %14, 0
  %or.cond = or i1 %19, %.not
  br i1 %or.cond, label %20, label %29

20:                                               ; preds = %11
  %21 = icmp slt i64 %5, 0
  br i1 %21, label %22, label %27

22:                                               ; preds = %20
  %23 = ptrtoint ptr %9 to i64
  %24 = ptrtoint ptr %0 to i64
  %25 = sub i64 %23, %24
  %26 = tail call ptr @memchr(ptr noundef %0, i32 noundef 45, i64 noundef %25) #16
  %.not11 = icmp eq ptr %26, null
  br i1 %.not11, label %27, label %29

27:                                               ; preds = %22, %20
  %28 = trunc i64 %5 to i32
  store i32 %28, ptr %1, align 4, !tbaa !17
  br label %29

29:                                               ; preds = %11, %22, %2, %8, %27
  %.0 = phi i1 [ true, %27 ], [ false, %8 ], [ false, %2 ], [ false, %22 ], [ false, %11 ]
  call void @llvm.lifetime.end.p0(i64 8, ptr nonnull %3) #15
  ret i1 %.0
}